; Function Attrs: inlinehint mustprogress nofree norecurse nosync nounwind optsize willreturn memory(readwrite, inaccessiblemem: none) uwtable
define internal noundef ptr @_ZZN8nanobind6detail11func_createILb0ELb1EZNS0_18make_iterator_implINS0_15iterator_accessIN9__gnu_cxx17__normal_iteratorIPZL38nanobind_init_test_stl_bind_vector_extRNS_7module_EE2ElSt6vectorIS8_SaIS8_EEEEEELNS_9rv_policyE1ESD_SD_RS8_JEEENS_5typedINS_8iteratorEJT3_EEENS_6handleEPKcT1_T2_DpOT4_EUlSL_E_SL_JSL_EJLm0EEJNS_5scopeENS_4nameENS_9is_methodEEEEP7_objectOSO_PFSP_DpT3_ESt16integer_sequenceImJXspT4_EEEDpRKT5_ENUlPvPSY_PhSF_PNS0_12cleanup_listEE_8__invokeES1A_S1B_S1C_SF_S1E_(ptr readnone captures(none) %0, ptr noundef readonly captures(none) %1, ptr readonly captures(none) %2, i32 %3, ptr readnone captures(none) %4) #17 align 2 personality ptr @__gxx_personality_v0 {
  %6 = load ptr, ptr %1, align 8, !tbaa !89
  %.not.i.i.i = icmp eq ptr %6, null
  br i1 %.not.i.i.i, label %_ZZN8nanobind6detail11func_createILb0ELb1EZNS0_18make_iterator_implINS0_15iterator_accessIN9__gnu_cxx17__normal_iteratorIPZL38nanobind_init_test_stl_bind_vector_extRNS_7module_EE2ElSt6vectorIS8_SaIS8_EEEEEELNS_9rv_policyE1ESD_SD_RS8_JEEENS_5typedINS_8iteratorEJT3_EEENS_6handleEPKcT1_T2_DpOT4_EUlSL_E_SL_JSL_EJLm0EEJNS_5scopeENS_4nameENS_9is_methodEEEEP7_objectOSO_PFSP_DpT3_ESt16integer_sequenceImJXspT4_EEEDpRKT5_ENKUlPvPSY_PhSF_PNS0_12cleanup_listEE_clES1A_S1B_S1C_SF_S1E_.exit, label %7

7:                                                ; preds = %5
  %8 = load i64, ptr %6, align 8, !tbaa !41
  %9 = add nsw i64 %8, 1
  store i64 %9, ptr %6, align 8, !tbaa !41
  br label %_ZZN8nanobind6detail11func_createILb0ELb1EZNS0_18make_iterator_implINS0_15iterator_accessIN9__gnu_cxx17__normal_iteratorIPZL38nanobind_init_test_stl_bind_vector_extRNS_7module_EE2ElSt6vectorIS8_SaIS8_EEEEEELNS_9rv_policyE1ESD_SD_RS8_JEEENS_5typedINS_8iteratorEJT3_EEENS_6handleEPKcT1_T2_DpOT4_EUlSL_E_SL_JSL_EJLm0EEJNS_5scopeENS_4nameENS_9is_methodEEEEP7_objectOSO_PFSP_DpT3_ESt16integer_sequenceImJXspT4_EEEDpRKT5_ENKUlPvPSY_PhSF_PNS0_12cleanup_listEE_clES1A_S1B_S1C_SF_S1E_.exit

_ZZN8nanobind6detail11func_createILb0ELb1EZNS0_18make_iterator_implINS0_15iterator_accessIN9__gnu_cxx17__normal_iteratorIPZL38nanobind_init_test_stl_bind_vector_extRNS_7module_EE2ElSt6vectorIS8_SaIS8_EEEEEELNS_9rv_policyE1ESD_SD_RS8_JEEENS_5typedINS_8iteratorEJT3_EEENS_6handleEPKcT1_T2_DpOT4_EUlSL_E_SL_JSL_EJLm0EEJNS_5scopeENS_4nameENS_9is_methodEEEEP7_objectOSO_PFSP_DpT3_ESt16integer_sequenceImJXspT4_EEEDpRKT5_ENKUlPvPSY_PhSF_PNS0_12cleanup_listEE_clES1A_S1B_S1C_SF_S1E_.exit: ; preds = %7, %5
  ret ptr %6
}